target datalayout = "e-m:e-p270:32:32-p271:32:32-p272:64:64-i64:64-i128:128-f80:128-n8:16:32:64-S128"
target triple = "x86_64-pc-linux-gnu"

%struct.WebPInfo = type { i32, i32, i32, i32, [9 x i32], [3 x i32], i32, i32, i32, i32, i32, i64, i32, i32, i32, i32, i32, i32, i32, i32 }

@stderr = external global ptr, align 8
@.str.16 = private unnamed_addr constant [11 x i8] c"Error: %s\0A\00", align 1
@.str.59 = private unnamed_addr constant [27 x i8] c"Truncated lossy bitstream.\00", align 1
@.str.77 = private unnamed_addr constant [24 x i8] c"  Simple filter:    %d\0A\00", align 1
@.str.78 = private unnamed_addr constant [24 x i8] c"  Level:            %d\0A\00", align 1
@.str.79 = private unnamed_addr constant [24 x i8] c"  Sharpness:        %d\0A\00", align 1
@.str.80 = private unnamed_addr constant [24 x i8] c"  Use lf delta:     %d\0A\00", align 1
@.str.81 = private unnamed_addr constant [24 x i8] c"  Update lf delta:  %d\0A\00", align 1

; Function Attrs: nounwind uwtable
define internal i32 @GetBits(ptr noundef %0, i64 noundef %1, i64 noundef %2, ptr noundef %3, ptr noundef %4) #0 {
  %6 = alloca i32, align 4
  %7 = alloca ptr, align 8
  %8 = alloca i64, align 8
  %9 = alloca i64, align 8
  %10 = alloca ptr, align 8
  %11 = alloca ptr, align 8
  %12 = alloca i64, align 8
  %13 = alloca i32, align 4
  store ptr %0, ptr %7, align 8
  store i64 %1, ptr %8, align 8
  store i64 %2, ptr %9, align 8
  store ptr %3, ptr %10, align 8
  store ptr %4, ptr %11, align 8
  %14 = load ptr, ptr %10, align 8
  store i32 0, ptr %14, align 4
  br label %15

15:                                               ; preds = %50, %5
  %16 = load i64, ptr %9, align 8
  %17 = add i64 %16, -1
  store i64 %17, ptr %9, align 8
  %18 = icmp ugt i64 %16, 0
  br i1 %18, label %19, label %51

19:                                               ; preds = %15
  %20 = load ptr, ptr %11, align 8
  %21 = load i64, ptr %20, align 8
  %22 = add i64 %21, 1
  store i64 %22, ptr %20, align 8
  store i64 %21, ptr %12, align 8
  %23 = load i64, ptr %12, align 8
  %24 = lshr i64 %23, 3
  %25 = load i64, ptr %8, align 8
  %26 = icmp uge i64 %24, %25
  br i1 %26, label %27, label %28

27:                                               ; preds = %19
  store i32 0, ptr %6, align 4
  br label %52

28:                                               ; preds = %19
  %29 = load ptr, ptr %7, align 8
  %30 = load i64, ptr %12, align 8
  %31 = lshr i64 %30, 3
  %32 = getelementptr inbounds i8, ptr %29, i64 %31
  %33 = load i8, ptr %32, align 1
  %34 = zext i8 %33 to i32
  %35 = load i64, ptr %12, align 8
  %36 = and i64 %35, 7
  %37 = trunc i64 %36 to i32
  %38 = ashr i32 128, %37
  %39 = and i32 %34, %38
  %40 = icmp ne i32 %39, 0
  %41 = xor i1 %40, true
  %42 = xor i1 %41, true
  %43 = zext i1 %42 to i32
  store i32 %43, ptr %13, align 4
  %44 = load ptr, ptr %10, align 8
  %45 = load i32, ptr %44, align 4
  %46 = shl i32 %45, 1
  %47 = load i32, ptr %13, align 4
  %48 = or i32 %46, %47
  %49 = load ptr, ptr %10, align 8
  store i32 %48, ptr %49, align 4
  br label %50

50:                                               ; preds = %28
  br label %15, !llvm.loop !12

51:                                               ; preds = %15
  store i32 1, ptr %6, align 4
  br label %52

52:                                               ; preds = %51, %27
  %53 = load i32, ptr %6, align 4
  ret i32 %53
}

; Function Attrs: nounwind uwtable
define internal i32 @ParseLossyFilterHeader(ptr noundef %0, ptr noundef %1, i64 noundef %2, ptr noundef %3) #0 {
  %5 = alloca i32, align 4
  %6 = alloca ptr, align 8
  %7 = alloca ptr, align 8
  %8 = alloca i64, align 8
  %9 = alloca ptr, align 8
  %10 = alloca i32, align 4
  %11 = alloca i32, align 4
  %12 = alloca i32, align 4
  %13 = alloca i32, align 4
  %14 = alloca i32, align 4
  %15 = alloca i32, align 4
  %16 = alloca i32, align 4
  store ptr %0, ptr %6, align 8
  store ptr %1, ptr %7, align 8
  store i64 %2, ptr %8, align 8
  store ptr %3, ptr %9, align 8
  br label %17

17:                                               ; preds = %4
  %18 = load ptr, ptr %7, align 8
  %19 = load i64, ptr %8, align 8
  %20 = load ptr, ptr %9, align 8
  %21 = call i32 @GetBits(ptr noundef %18, i64 noundef %19, i64 noundef 1, ptr noundef %10, ptr noundef %20)
  %22 = icmp ne i32 %21, 0
  br i1 %22, label %34, label %23

23:                                               ; preds = %17
  br label %24

24:                                               ; preds = %23
  %25 = load ptr, ptr %6, align 8
  %26 = getelementptr inbounds %struct.WebPInfo, ptr %25, i32 0, i32 16
  %27 = load i32, ptr %26, align 8
  %28 = icmp ne i32 %27, 0
  br i1 %28, label %29, label %32

29:                                               ; preds = %24
  %30 = load ptr, ptr @stderr, align 8
  %31 = call i32 (ptr, ptr, ...) @fprintf(ptr noundef %30, ptr noundef @.str.16, ptr noundef @.str.59) #7
  br label %32

32:                                               ; preds = %29, %24
  br label %33

33:                                               ; preds = %32
  store i32 1, ptr %5, align 4
  br label %180

34:                                               ; preds = %17
  br label %35

35:                                               ; preds = %34
  br label %36

36:                                               ; preds = %35
  %37 = load ptr, ptr %7, align 8
  %38 = load i64, ptr %8, align 8
  %39 = load ptr, ptr %9, align 8
  %40 = call i32 @GetBits(ptr noundef %37, i64 noundef %38, i64 noundef 6, ptr noundef %11, ptr noundef %39)
  %41 = icmp ne i32 %40, 0
  br i1 %41, label %53, label %42

42:                                               ; preds = %36
  br label %43

43:                                               ; preds = %42
  %44 = load ptr, ptr %6, align 8
  %45 = getelementptr inbounds %struct.WebPInfo, ptr %44, i32 0, i32 16
  %46 = load i32, ptr %45, align 8
  %47 = icmp ne i32 %46, 0
  br i1 %47, label %48, label %51

48:                                               ; preds = %43
  %49 = load ptr, ptr @stderr, align 8
  %50 = call i32 (ptr, ptr, ...) @fprintf(ptr noundef %49, ptr noundef @.str.16, ptr noundef @.str.59) #7
  br label %51

51:                                               ; preds = %48, %43
  br label %52

52:                                               ; preds = %51
  store i32 1, ptr %5, align 4
  br label %180

53:                                               ; preds = %36
  br label %54

54:                                               ; preds = %53
  br label %55

55:                                               ; preds = %54
  %56 = load ptr, ptr %7, align 8
  %57 = load i64, ptr %8, align 8
  %58 = load ptr, ptr %9, align 8
  %59 = call i32 @GetBits(ptr noundef %56, i64 noundef %57, i64 noundef 3, ptr noundef %12, ptr noundef %58)
  %60 = icmp ne i32 %59, 0
  br i1 %60, label %72, label %61

61:                                               ; preds = %55
  br label %62

62:                                               ; preds = %61
  %63 = load ptr, ptr %6, align 8
  %64 = getelementptr inbounds %struct.WebPInfo, ptr %63, i32 0, i32 16
  %65 = load i32, ptr %64, align 8
  %66 = icmp ne i32 %65, 0
  br i1 %66, label %67, label %70

67:                                               ; preds = %62
  %68 = load ptr, ptr @stderr, align 8
  %69 = call i32 (ptr, ptr, ...) @fprintf(ptr noundef %68, ptr noundef @.str.16, ptr noundef @.str.59) #7
  br label %70

70:                                               ; preds = %67, %62
  br label %71

71:                                               ; preds = %70
  store i32 1, ptr %5, align 4
  br label %180

72:                                               ; preds = %55
  br label %73

73:                                               ; preds = %72
  br label %74

74:                                               ; preds = %73
  %75 = load ptr, ptr %7, align 8
  %76 = load i64, ptr %8, align 8
  %77 = load ptr, ptr %9, align 8
  %78 = call i32 @GetBits(ptr noundef %75, i64 noundef %76, i64 noundef 1, ptr noundef %13, ptr noundef %77)
  %79 = icmp ne i32 %78, 0
  br i1 %79, label %91, label %80

80:                                               ; preds = %74
  br label %81

81:                                               ; preds = %80
  %82 = load ptr, ptr %6, align 8
  %83 = getelementptr inbounds %struct.WebPInfo, ptr %82, i32 0, i32 16
  %84 = load i32, ptr %83, align 8
  %85 = icmp ne i32 %84, 0
  br i1 %85, label %86, label %89

86:                                               ; preds = %81
  %87 = load ptr, ptr @stderr, align 8
  %88 = call i32 (ptr, ptr, ...) @fprintf(ptr noundef %87, ptr noundef @.str.16, ptr noundef @.str.59) #7
  br label %89

89:                                               ; preds = %86, %81
  br label %90

90:                                               ; preds = %89
  store i32 1, ptr %5, align 4
  br label %180

91:                                               ; preds = %74
  br label %92

92:                                               ; preds = %91
  %93 = load i32, ptr %10, align 4
  %94 = call i32 (ptr, ...) @printf(ptr noundef @.str.77, i32 noundef %93)
  %95 = load i32, ptr %11, align 4
  %96 = call i32 (ptr, ...) @printf(ptr noundef @.str.78, i32 noundef %95)
  %97 = load i32, ptr %12, align 4
  %98 = call i32 (ptr, ...) @printf(ptr noundef @.str.79, i32 noundef %97)
  %99 = load i32, ptr %13, align 4
  %100 = call i32 (ptr, ...) @printf(ptr noundef @.str.80, i32 noundef %99)
  %101 = load i32, ptr %13, align 4
  %102 = icmp ne i32 %101, 0
  br i1 %102, label %103, label %179

103:                                              ; preds = %92
  br label %104

104:                                              ; preds = %103
  %105 = load ptr, ptr %7, align 8
  %106 = load i64, ptr %8, align 8
  %107 = load ptr, ptr %9, align 8
  %108 = call i32 @GetBits(ptr noundef %105, i64 noundef %106, i64 noundef 1, ptr noundef %14, ptr noundef %107)
  %109 = icmp ne i32 %108, 0
  br i1 %109, label %121, label %110

110:                                              ; preds = %104
  br label %111

111:                                              ; preds = %110
  %112 = load ptr, ptr %6, align 8
  %113 = getelementptr inbounds %struct.WebPInfo, ptr %112, i32 0, i32 16
  %114 = load i32, ptr %113, align 8
  %115 = icmp ne i32 %114, 0
  br i1 %115, label %116, label %119

116:                                              ; preds = %111
  %117 = load ptr, ptr @stderr, align 8
  %118 = call i32 (ptr, ptr, ...) @fprintf(ptr noundef %117, ptr noundef @.str.16, ptr noundef @.str.59) #7
  br label %119

119:                                              ; preds = %116, %111
  br label %120

120:                                              ; preds = %119
  store i32 1, ptr %5, align 4
  br label %180

121:                                              ; preds = %104
  br label %122

122:                                              ; preds = %121
  %123 = load i32, ptr %14, align 4
  %124 = call i32 (ptr, ...) @printf(ptr noundef @.str.81, i32 noundef %123)
  %125 = load i32, ptr %14, align 4
  %126 = icmp ne i32 %125, 0
  br i1 %126, label %127, label %178

127:                                              ; preds = %122
  store i32 0, ptr %15, align 4
  br label %128

128:                                              ; preds = %174, %127
  %129 = load i32, ptr %15, align 4
  %130 = icmp slt i32 %129, 8
  br i1 %130, label %131, label %177

131:                                              ; preds = %128
  br label %132

132:                                              ; preds = %131
  %133 = load ptr, ptr %7, align 8
  %134 = load i64, ptr %8, align 8
  %135 = load ptr, ptr %9, align 8
  %136 = call i32 @GetBits(ptr noundef %133, i64 noundef %134, i64 noundef 1, ptr noundef %16, ptr noundef %135)
  %137 = icmp ne i32 %136, 0
  br i1 %137, label %149, label %138

138:                                              ; preds = %132
  br label %139

139:                                              ; preds = %138
  %140 = load ptr, ptr %6, align 8
  %141 = getelementptr inbounds %struct.WebPInfo, ptr %140, i32 0, i32 16
  %142 = load i32, ptr %141, align 8
  %143 = icmp ne i32 %142, 0
  br i1 %143, label %144, label %147

144:                                              ; preds = %139
  %145 = load ptr, ptr @stderr, align 8
  %146 = call i32 (ptr, ptr, ...) @fprintf(ptr noundef %145, ptr noundef @.str.16, ptr noundef @.str.59) #7
  br label %147

147:                                              ; preds = %144, %139
  br label %148

148:                                              ; preds = %147
  store i32 1, ptr %5, align 4
  br label %180

149:                                              ; preds = %132
  br label %150

150:                                              ; preds = %149
  %151 = load i32, ptr %16, align 4
  %152 = icmp ne i32 %151, 0
  br i1 %152, label %153, label %173

153:                                              ; preds = %150
  br label %154

154:                                              ; preds = %153
  %155 = load ptr, ptr %7, align 8
  %156 = load i64, ptr %8, align 8
  %157 = load ptr, ptr %9, align 8
  %158 = call i32 @GetBits(ptr noundef %155, i64 noundef %156, i64 noundef 7, ptr noundef %16, ptr noundef %157)
  %159 = icmp ne i32 %158, 0
  br i1 %159, label %171, label %160

160:                                              ; preds = %154
  br label %161

161:                                              ; preds = %160
  %162 = load ptr, ptr %6, align 8
  %163 = getelementptr inbounds %struct.WebPInfo, ptr %162, i32 0, i32 16
  %164 = load i32, ptr %163, align 8
  %165 = icmp ne i32 %164, 0
  br i1 %165, label %166, label %169

166:                                              ; preds = %161
  %167 = load ptr, ptr @stderr, align 8
  %168 = call i32 (ptr, ptr, ...) @fprintf(ptr noundef %167, ptr noundef @.str.16, ptr noundef @.str.59) #7
  br label %169

169:                                              ; preds = %166, %161
  br label %170

170:                                              ; preds = %169
  store i32 1, ptr %5, align 4
  br label %180

171:                                              ; preds = %154
  br label %172

172:                                              ; preds = %171
  br label %173

173:                                              ; preds = %172, %150
  br label %174

174:                                              ; preds = %173
  %175 = load i32, ptr %15, align 4
  %176 = add nsw i32 %175, 1
  store i32 %176, ptr %15, align 4
  br label %128, !llvm.loop !16

177:                                              ; preds = %128
  br label %178

178:                                              ; preds = %177, %122
  br label %179

179:                                              ; preds = %178, %92
  store i32 0, ptr %5, align 4
  br label %180

180:                                              ; preds = %179, %170, %148, %120, %90, %71, %52, %33
  %181 = load i32, ptr %5, align 4
  ret i32 %181
}