; Function Attrs: nofree nounwind uwtable
define internal fastcc range(i32 0, 2) i32 @ParseLossyFilterHeader(ptr nocapture noundef readonly %0, ptr nocapture noundef readonly %1, i64 noundef %2, ptr nocapture noundef %3) unnamed_addr #6 {
.lr.ph.i:
  %.promoted = load i64, ptr %3, align 8
  %4 = add i64 %.promoted, 1
  store i64 %4, ptr %3, align 8
  %5 = lshr i64 %.promoted, 3
  %.not13.i = icmp ult i64 %5, %2
  br i1 %.not13.i, label %.lr.ph.i47.preheader, label %15

.lr.ph.i47.preheader:                             ; preds = %.lr.ph.i
  %6 = getelementptr inbounds i8, ptr %1, i64 %5
  %7 = load i8, ptr %6, align 1
  %8 = zext i8 %7 to i32
  %9 = trunc i64 %.promoted to i32
  %10 = and i32 %9, 7
  %11 = lshr exact i32 128, %10
  %12 = and i32 %11, %8
  %13 = icmp ne i32 %12, 0
  %14 = zext i1 %13 to i32
  br label %.lr.ph.i47

15:                                               ; preds = %.lr.ph.i
  %16 = getelementptr inbounds i8, ptr %0, i64 112
  %17 = load i32, ptr %16, align 8
  %.not31 = icmp eq i32 %17, 0
  br i1 %.not31, label %.loopexit, label %.loopexit.sink.split

.lr.ph.i47:                                       ; preds = %.lr.ph.i47.preheader, %21
  %18 = phi i64 [ %19, %21 ], [ %4, %.lr.ph.i47.preheader ]
  %.0104 = phi i32 [ %33, %21 ], [ 0, %.lr.ph.i47.preheader ]
  %.in.i48 = phi i64 [ %22, %21 ], [ 6, %.lr.ph.i47.preheader ]
  %19 = add i64 %18, 1
  store i64 %19, ptr %3, align 8
  %20 = lshr i64 %18, 3
  %.not13.i49 = icmp ult i64 %20, %2
  br i1 %.not13.i49, label %21, label %34

21:                                               ; preds = %.lr.ph.i47
  %22 = add nsw i64 %.in.i48, -1
  %23 = getelementptr inbounds i8, ptr %1, i64 %20
  %24 = load i8, ptr %23, align 1
  %25 = zext i8 %24 to i32
  %26 = trunc i64 %18 to i32
  %27 = and i32 %26, 7
  %28 = lshr exact i32 128, %27
  %29 = and i32 %28, %25
  %30 = icmp ne i32 %29, 0
  %31 = zext i1 %30 to i32
  %32 = shl i32 %.0104, 1
  %33 = or disjoint i32 %32, %31
  %.not.i51 = icmp eq i64 %22, 0
  br i1 %.not.i51, label %.lr.ph.i53, label %.lr.ph.i47, !llvm.loop !11

34:                                               ; preds = %.lr.ph.i47
  %35 = getelementptr inbounds i8, ptr %0, i64 112
  %36 = load i32, ptr %35, align 8
  %.not33 = icmp eq i32 %36, 0
  br i1 %.not33, label %.loopexit, label %.loopexit.sink.split

.lr.ph.i53:                                       ; preds = %21, %40
  %37 = phi i64 [ %38, %40 ], [ %19, %21 ]
  %.0102 = phi i32 [ %52, %40 ], [ 0, %21 ]
  %.in.i54 = phi i64 [ %41, %40 ], [ 3, %21 ]
  %38 = add i64 %37, 1
  store i64 %38, ptr %3, align 8
  %39 = lshr i64 %37, 3
  %.not13.i55 = icmp ult i64 %39, %2
  br i1 %.not13.i55, label %40, label %55

40:                                               ; preds = %.lr.ph.i53
  %41 = add nsw i64 %.in.i54, -1
  %42 = getelementptr inbounds i8, ptr %1, i64 %39
  %43 = load i8, ptr %42, align 1
  %44 = zext i8 %43 to i32
  %45 = trunc i64 %37 to i32
  %46 = and i32 %45, 7
  %47 = lshr exact i32 128, %46
  %48 = and i32 %47, %44
  %49 = icmp ne i32 %48, 0
  %50 = zext i1 %49 to i32
  %51 = shl i32 %.0102, 1
  %52 = or disjoint i32 %51, %50
  %.not.i57 = icmp eq i64 %41, 0
  br i1 %.not.i57, label %.lr.ph.i59.preheader, label %.lr.ph.i53, !llvm.loop !11

.lr.ph.i59.preheader:                             ; preds = %40
  %53 = add i64 %37, 2
  store i64 %53, ptr %3, align 8
  %54 = lshr i64 %38, 3
  %.not13.i61 = icmp ult i64 %54, %2
  br i1 %.not13.i61, label %GetBits.exit64, label %71

55:                                               ; preds = %.lr.ph.i53
  %56 = getelementptr inbounds i8, ptr %0, i64 112
  %57 = load i32, ptr %56, align 8
  %.not35 = icmp eq i32 %57, 0
  br i1 %.not35, label %.loopexit, label %.loopexit.sink.split

GetBits.exit64:                                   ; preds = %.lr.ph.i59.preheader
  %58 = getelementptr inbounds i8, ptr %1, i64 %54
  %59 = load i8, ptr %58, align 1
  %60 = zext i8 %59 to i32
  %61 = trunc i64 %38 to i32
  %62 = and i32 %61, 7
  %63 = lshr exact i32 128, %62
  %64 = and i32 %63, %60
  %65 = icmp ne i32 %64, 0
  %66 = zext i1 %65 to i32
  %67 = tail call i32 (ptr, ...) @printf(ptr noundef nonnull dereferenceable(1) @.str.77, i32 noundef %14)
  %68 = tail call i32 (ptr, ...) @printf(ptr noundef nonnull dereferenceable(1) @.str.78, i32 noundef %33)
  %69 = tail call i32 (ptr, ...) @printf(ptr noundef nonnull dereferenceable(1) @.str.79, i32 noundef %52)
  %70 = tail call i32 (ptr, ...) @printf(ptr noundef nonnull dereferenceable(1) @.str.80, i32 noundef %66)
  br i1 %65, label %.lr.ph.i65.preheader, label %.loopexit

71:                                               ; preds = %.lr.ph.i59.preheader
  %72 = getelementptr inbounds i8, ptr %0, i64 112
  %73 = load i32, ptr %72, align 8
  %.not37 = icmp eq i32 %73, 0
  br i1 %.not37, label %.loopexit, label %.loopexit.sink.split

.lr.ph.i65.preheader:                             ; preds = %GetBits.exit64
  %.promoted136 = load i64, ptr %3, align 8
  %74 = add i64 %.promoted136, 1
  store i64 %74, ptr %3, align 8
  %75 = lshr i64 %.promoted136, 3
  %.not13.i67 = icmp ult i64 %75, %2
  br i1 %.not13.i67, label %GetBits.exit70, label %86

GetBits.exit70:                                   ; preds = %.lr.ph.i65.preheader
  %76 = getelementptr inbounds i8, ptr %1, i64 %75
  %77 = load i8, ptr %76, align 1
  %78 = zext i8 %77 to i32
  %79 = trunc i64 %.promoted136 to i32
  %80 = and i32 %79, 7
  %81 = lshr exact i32 128, %80
  %82 = and i32 %81, %78
  %83 = icmp ne i32 %82, 0
  %84 = zext i1 %83 to i32
  %85 = tail call i32 (ptr, ...) @printf(ptr noundef nonnull dereferenceable(1) @.str.81, i32 noundef %84)
  br i1 %83, label %.preheader, label %.loopexit

86:                                               ; preds = %.lr.ph.i65.preheader
  %87 = getelementptr inbounds i8, ptr %0, i64 112
  %88 = load i32, ptr %87, align 8
  %.not40 = icmp eq i32 %88, 0
  br i1 %.not40, label %.loopexit, label %.loopexit.sink.split

.preheader:                                       ; preds = %GetBits.exit70
  %.promoted139 = load i64, ptr %3, align 8
  br label %.lr.ph.i71.preheader

.lr.ph.i71.preheader:                             ; preds = %.preheader, %GetBits.exit82
  %.0147 = phi i32 [ 0, %.preheader ], [ %109, %GetBits.exit82 ]
  %.promoted138140146 = phi i64 [ %.promoted139, %.preheader ], [ %.promoted138141, %GetBits.exit82 ]
  %89 = add i64 %.promoted138140146, 1
  store i64 %89, ptr %3, align 8
  %90 = lshr i64 %.promoted138140146, 3
  %.not13.i73 = icmp ult i64 %90, %2
  br i1 %.not13.i73, label %GetBits.exit76, label %98

GetBits.exit76:                                   ; preds = %.lr.ph.i71.preheader
  %91 = getelementptr inbounds i8, ptr %1, i64 %90
  %92 = load i8, ptr %91, align 1
  %93 = zext i8 %92 to i32
  %94 = trunc i64 %.promoted138140146 to i32
  %95 = and i32 %94, 7
  %96 = lshr exact i32 128, %95
  %97 = and i32 %96, %93
  %.not = icmp eq i32 %97, 0
  br i1 %.not, label %GetBits.exit82, label %.lr.ph.i77

98:                                               ; preds = %.lr.ph.i71.preheader
  %99 = getelementptr inbounds i8, ptr %0, i64 112
  %100 = load i32, ptr %99, align 8
  %.not43 = icmp eq i32 %100, 0
  br i1 %.not43, label %.loopexit, label %.loopexit.sink.split

.lr.ph.i77:                                       ; preds = %GetBits.exit76, %104
  %101 = phi i64 [ %102, %104 ], [ %89, %GetBits.exit76 ]
  %.in.i78 = phi i64 [ %105, %104 ], [ 7, %GetBits.exit76 ]
  %102 = add i64 %101, 1
  %103 = lshr i64 %101, 3
  %.not13.i79 = icmp ult i64 %103, %2
  br i1 %.not13.i79, label %104, label %106

104:                                              ; preds = %.lr.ph.i77
  %105 = add nsw i64 %.in.i78, -1
  %.not.i81 = icmp eq i64 %105, 0
  br i1 %.not.i81, label %GetBits.exit82.loopexit, label %.lr.ph.i77, !llvm.loop !11

106:                                              ; preds = %.lr.ph.i77
  store i64 %102, ptr %3, align 8
  %107 = getelementptr inbounds i8, ptr %0, i64 112
  %108 = load i32, ptr %107, align 8
  %.not46 = icmp eq i32 %108, 0
  br i1 %.not46, label %.loopexit, label %.loopexit.sink.split

GetBits.exit82.loopexit:                          ; preds = %104
  store i64 %102, ptr %3, align 8
  br label %GetBits.exit82

GetBits.exit82:                                   ; preds = %GetBits.exit82.loopexit, %GetBits.exit76
  %.promoted138141 = phi i64 [ %89, %GetBits.exit76 ], [ %102, %GetBits.exit82.loopexit ]
  %109 = add nuw nsw i32 %.0147, 1
  %exitcond.not = icmp eq i32 %109, 8
  br i1 %exitcond.not, label %.loopexit, label %.lr.ph.i71.preheader, !llvm.loop !17

.loopexit.sink.split:                             ; preds = %106, %98, %86, %71, %55, %34, %15
  %110 = load ptr, ptr @stderr, align 8
  %111 = tail call i32 (ptr, ptr, ...) @fprintf(ptr noundef %110, ptr noundef nonnull @.str.16, ptr noundef nonnull @.str.59) #13
  br label %.loopexit

.loopexit:                                        ; preds = %GetBits.exit82, %.loopexit.sink.split, %GetBits.exit64, %GetBits.exit70, %106, %98, %86, %71, %55, %34, %15
  %.030 = phi i32 [ 1, %15 ], [ 1, %34 ], [ 1, %55 ], [ 1, %71 ], [ 1, %86 ], [ 1, %98 ], [ 1, %106 ], [ 0, %GetBits.exit70 ], [ 0, %GetBits.exit64 ], [ 1, %.loopexit.sink.split ], [ 0, %GetBits.exit82 ]
  ret i32 %.030
}